target datalayout = "e-m:e-p270:32:32-p271:32:32-p272:64:64-i64:64-i128:128-f80:128-n8:16:32:64-S128"
target triple = "x86_64-pc-linux-gnu"

%union.pthread_mutex_t = type { %struct.__pthread_mutex_s }
%struct.__pthread_mutex_s = type { i32, i32, i32, i32, i32, i16, i16, %struct.__pthread_internal_list }
%struct.__pthread_internal_list = type { ptr, ptr }

@conf_mutex = dso_local global %union.pthread_mutex_t zeroinitializer, align 8
@.str = private unnamed_addr constant [29 x i8] c"%s: pthread_mutex_lock(): %m\00", align 1
@__func__.free_slurmdbd_conf = private unnamed_addr constant [19 x i8] c"free_slurmdbd_conf\00", align 1
@slurmdbd_conf = external global ptr, align 8
@.str.1 = private unnamed_addr constant [31 x i8] c"%s: pthread_mutex_unlock(): %m\00", align 1

; Function Attrs: nounwind uwtable
define dso_local void @free_slurmdbd_conf() #0 {
  %1 = alloca i32, align 4
  %2 = alloca i32, align 4
  br label %3

3:                                                ; preds = %0
  call void @llvm.lifetime.start.p0(i64 4, ptr %1) #7
  %4 = call i32 @pthread_mutex_lock(ptr noundef @conf_mutex) #7
  store i32 %4, ptr %1, align 4
  %5 = load i32, ptr %1, align 4
  %6 = icmp ne i32 %5, 0
  br i1 %6, label %7, label %10

7:                                                ; preds = %3
  %8 = load i32, ptr %1, align 4
  %9 = call ptr @__errno_location() #8
  store i32 %8, ptr %9, align 4
  call void (ptr, ...) @fatal_abort(ptr noundef @.str, ptr noundef @__func__.free_slurmdbd_conf) #9
  unreachable

10:                                               ; preds = %3
  call void @llvm.lifetime.end.p0(i64 4, ptr %1) #7
  br label %11

11:                                               ; preds = %10
  call void @_clear_slurmdbd_conf()
  call void @slurm_xfree(ptr noundef @slurmdbd_conf)
  br label %12

12:                                               ; preds = %11
  call void @llvm.lifetime.start.p0(i64 4, ptr %2) #7
  %13 = call i32 @pthread_mutex_unlock(ptr noundef @conf_mutex) #7
  store i32 %13, ptr %2, align 4
  %14 = load i32, ptr %2, align 4
  %15 = icmp ne i32 %14, 0
  br i1 %15, label %16, label %19

16:                                               ; preds = %12
  %17 = load i32, ptr %2, align 4
  %18 = call ptr @__errno_location() #8
  store i32 %17, ptr %18, align 4
  call void (ptr, ...) @fatal_abort(ptr noundef @.str.1, ptr noundef @__func__.free_slurmdbd_conf) #9
  unreachable

19:                                               ; preds = %12
  call void @llvm.lifetime.end.p0(i64 4, ptr %2) #7
  br label %20

20:                                               ; preds = %19
  ret void
}