; Function Attrs: nounwind uwtable
define dso_local void @free_slurmdbd_conf() local_unnamed_addr #0 {
  %1 = tail call i32 @pthread_mutex_lock(ptr noundef nonnull @conf_mutex) #10
  %.not = icmp eq i32 %1, 0
  br i1 %.not, label %4, label %2

2:                                                ; preds = %0
  %3 = tail call ptr @__errno_location() #11
  store i32 %1, ptr %3, align 4
  tail call void (ptr, ...) @fatal_abort(ptr noundef nonnull @.str, ptr noundef nonnull @__func__.free_slurmdbd_conf) #12
  unreachable

4:                                                ; preds = %0
  tail call fastcc void @_clear_slurmdbd_conf()
  tail call void @slurm_xfree(ptr noundef nonnull @slurmdbd_conf) #10
  %5 = tail call i32 @pthread_mutex_unlock(ptr noundef nonnull @conf_mutex) #10
  %.not5 = icmp eq i32 %5, 0
  br i1 %.not5, label %8, label %6

6:                                                ; preds = %4
  %7 = tail call ptr @__errno_location() #11
  store i32 %5, ptr %7, align 4
  tail call void (ptr, ...) @fatal_abort(ptr noundef nonnull @.str.1, ptr noundef nonnull @__func__.free_slurmdbd_conf) #12
  unreachable

8:                                                ; preds = %4
  ret void
}